; Function Attrs: mustprogress nounwind uwtable
define hidden void @_ZN7oopDesc5printEv(ptr noundef nonnull align 8 dereferenceable(16) %0) local_unnamed_addr #0 align 2 {
  %2 = load ptr, ptr @tty, align 8
  %3 = load i32, ptr %0, align 8
  %4 = icmp eq i32 %3, -1163019586
  br i1 %4, label %5, label %6

5:                                                ; preds = %1
  tail call void (ptr, ptr, ...) @_ZN12outputStream8print_crEPKcz(ptr noundef nonnull align 8 dereferenceable(56) %2, ptr noundef nonnull @.str) #11
  br label %_ZNK7oopDesc8print_onEP12outputStream.exit

6:                                                ; preds = %1
  %7 = load i8, ptr @UseCompressedClassPointers, align 1
  %8 = trunc i8 %7 to i1
  %9 = getelementptr inbounds i8, ptr %0, i64 8
  br i1 %8, label %10, label %20

10:                                               ; preds = %6
  %11 = load i32, ptr %9, align 8
  %12 = load ptr, ptr @_ZN23CompressedKlassPointers5_baseE, align 8
  %13 = load i32, ptr @_ZN23CompressedKlassPointers6_shiftE, align 4
  %14 = ptrtoint ptr %12 to i64
  %15 = zext i32 %11 to i64
  %16 = zext nneg i32 %13 to i64
  %17 = shl i64 %15, %16
  %18 = add i64 %17, %14
  %19 = inttoptr i64 %18 to ptr
  br label %_ZNK7oopDesc5klassEv.exit.i

20:                                               ; preds = %6
  %21 = load ptr, ptr %9, align 8
  br label %_ZNK7oopDesc5klassEv.exit.i

_ZNK7oopDesc5klassEv.exit.i:                      ; preds = %20, %10
  %.0.i.i = phi ptr [ %19, %10 ], [ %21, %20 ]
  %22 = load ptr, ptr %.0.i.i, align 8
  %23 = getelementptr inbounds i8, ptr %22, i64 304
  %24 = load ptr, ptr %23, align 8
  tail call void %24(ptr noundef nonnull align 8 dereferenceable(196) %.0.i.i, ptr noundef nonnull %0, ptr noundef %2) #11
  br label %_ZNK7oopDesc8print_onEP12outputStream.exit

_ZNK7oopDesc8print_onEP12outputStream.exit:       ; preds = %5, %_ZNK7oopDesc5klassEv.exit.i
  ret void
}